target datalayout = "e-m:e-p270:32:32-p271:32:32-p272:64:64-i64:64-i128:128-f80:128-n8:16:32:64-S128"
target triple = "x86_64-pc-linux-gnu"

@_ZN11duckdb_zstdL18ZSTD_did_fieldSizeE = internal constant [4 x i64] [i64 0, i64 1, i64 2, i64 4], align 16
@_ZN11duckdb_zstdL18ZSTD_fcs_fieldSizeE = internal constant [4 x i64] [i64 0, i64 2, i64 4, i64 8], align 16

; Function Attrs: mustprogress nounwind uwtable
define internal noundef i64 @_ZN11duckdb_zstdL24ZSTD_startingInputLengthENS_13ZSTD_format_eE(i32 noundef %0) #2 {
  %2 = alloca i32, align 4
  %3 = alloca i64, align 8
  store i32 %0, ptr %2, align 4, !tbaa !55
  call void @llvm.lifetime.start.p0(i64 8, ptr %3) #12
  %4 = load i32, ptr %2, align 4, !tbaa !55
  %5 = icmp eq i32 %4, 0
  %6 = select i1 %5, i32 5, i32 1
  %7 = sext i32 %6 to i64
  store i64 %7, ptr %3, align 8, !tbaa !34
  %8 = load i64, ptr %3, align 8, !tbaa !34
  call void @llvm.lifetime.end.p0(i64 8, ptr %3) #12
  ret i64 %8
}

; Function Attrs: mustprogress uwtable
define internal noundef i64 @_ZN11duckdb_zstdL29ZSTD_frameHeaderSize_internalEPKvmNS_13ZSTD_format_eE(ptr noundef %0, i64 noundef %1, i32 noundef %2) #0 {
  %4 = alloca i64, align 8
  %5 = alloca ptr, align 8
  %6 = alloca i64, align 8
  %7 = alloca i32, align 4
  %8 = alloca i64, align 8
  %9 = alloca i32, align 4
  %10 = alloca i8, align 1
  %11 = alloca i32, align 4
  %12 = alloca i32, align 4
  %13 = alloca i32, align 4
  store ptr %0, ptr %5, align 8, !tbaa !33
  store i64 %1, ptr %6, align 8, !tbaa !34
  store i32 %2, ptr %7, align 4, !tbaa !55
  call void @llvm.lifetime.start.p0(i64 8, ptr %8) #12
  %14 = load i32, ptr %7, align 4, !tbaa !55
  %15 = call noundef i64 @_ZN11duckdb_zstdL24ZSTD_startingInputLengthENS_13ZSTD_format_eE(i32 noundef %14)
  store i64 %15, ptr %8, align 8, !tbaa !34
  br label %16

16:                                               ; preds = %3
  %17 = load i64, ptr %6, align 8, !tbaa !34
  %18 = load i64, ptr %8, align 8, !tbaa !34
  %19 = icmp ult i64 %17, %18
  br i1 %19, label %20, label %33

20:                                               ; preds = %16
  br label %21

21:                                               ; preds = %20
  br label %22

22:                                               ; preds = %21
  br label %23

23:                                               ; preds = %22
  br label %24

24:                                               ; preds = %23
  br label %25

25:                                               ; preds = %24
  br label %26

26:                                               ; preds = %25
  br label %27

27:                                               ; preds = %26
  br label %28

28:                                               ; preds = %27
  br label %29

29:                                               ; preds = %28
  br label %30

30:                                               ; preds = %29
  br label %31

31:                                               ; preds = %30
  br label %32

32:                                               ; preds = %31
  store i64 -72, ptr %4, align 8
  store i32 1, ptr %9, align 4
  br label %77

33:                                               ; preds = %16
  br label %34

34:                                               ; preds = %33
  br label %35

35:                                               ; preds = %34
  call void @llvm.lifetime.start.p0(i64 1, ptr %10) #12
  %36 = load ptr, ptr %5, align 8, !tbaa !33
  %37 = load i64, ptr %8, align 8, !tbaa !34
  %38 = sub i64 %37, 1
  %39 = getelementptr inbounds nuw i8, ptr %36, i64 %38
  %40 = load i8, ptr %39, align 1, !tbaa !56
  store i8 %40, ptr %10, align 1, !tbaa !56
  call void @llvm.lifetime.start.p0(i64 4, ptr %11) #12
  %41 = load i8, ptr %10, align 1, !tbaa !56
  %42 = zext i8 %41 to i32
  %43 = and i32 %42, 3
  store i32 %43, ptr %11, align 4, !tbaa !54
  call void @llvm.lifetime.start.p0(i64 4, ptr %12) #12
  %44 = load i8, ptr %10, align 1, !tbaa !56
  %45 = zext i8 %44 to i32
  %46 = ashr i32 %45, 5
  %47 = and i32 %46, 1
  store i32 %47, ptr %12, align 4, !tbaa !54
  call void @llvm.lifetime.start.p0(i64 4, ptr %13) #12
  %48 = load i8, ptr %10, align 1, !tbaa !56
  %49 = zext i8 %48 to i32
  %50 = ashr i32 %49, 6
  store i32 %50, ptr %13, align 4, !tbaa !54
  %51 = load i64, ptr %8, align 8, !tbaa !34
  %52 = load i32, ptr %12, align 4, !tbaa !54
  %53 = icmp ne i32 %52, 0
  %54 = xor i1 %53, true
  %55 = zext i1 %54 to i64
  %56 = add i64 %51, %55
  %57 = load i32, ptr %11, align 4, !tbaa !54
  %58 = zext i32 %57 to i64
  %59 = getelementptr inbounds nuw [4 x i64], ptr @_ZN11duckdb_zstdL18ZSTD_did_fieldSizeE, i64 0, i64 %58
  %60 = load i64, ptr %59, align 8, !tbaa !34
  %61 = add i64 %56, %60
  %62 = load i32, ptr %13, align 4, !tbaa !54
  %63 = zext i32 %62 to i64
  %64 = getelementptr inbounds nuw [4 x i64], ptr @_ZN11duckdb_zstdL18ZSTD_fcs_fieldSizeE, i64 0, i64 %63
  %65 = load i64, ptr %64, align 8, !tbaa !34
  %66 = add i64 %61, %65
  %67 = load i32, ptr %12, align 4, !tbaa !54
  %68 = icmp ne i32 %67, 0
  br i1 %68, label %69, label %73

69:                                               ; preds = %35
  %70 = load i32, ptr %13, align 4, !tbaa !54
  %71 = icmp ne i32 %70, 0
  %72 = xor i1 %71, true
  br label %73

73:                                               ; preds = %69, %35
  %74 = phi i1 [ false, %35 ], [ %72, %69 ]
  %75 = zext i1 %74 to i64
  %76 = add i64 %66, %75
  store i64 %76, ptr %4, align 8
  store i32 1, ptr %9, align 4
  call void @llvm.lifetime.end.p0(i64 4, ptr %13) #12
  call void @llvm.lifetime.end.p0(i64 4, ptr %12) #12
  call void @llvm.lifetime.end.p0(i64 4, ptr %11) #12
  call void @llvm.lifetime.end.p0(i64 1, ptr %10) #12
  br label %77

77:                                               ; preds = %73, %32
  call void @llvm.lifetime.end.p0(i64 8, ptr %8) #12
  %78 = load i64, ptr %4, align 8
  ret i64 %78
}

; Function Attrs: mustprogress uwtable
define noundef i64 @_ZN11duckdb_zstd20ZSTD_frameHeaderSizeEPKvm(ptr noundef %0, i64 noundef %1) #0 {
  %3 = alloca ptr, align 8
  %4 = alloca i64, align 8
  store ptr %0, ptr %3, align 8, !tbaa !33
  store i64 %1, ptr %4, align 8, !tbaa !34
  %5 = load ptr, ptr %3, align 8, !tbaa !33
  %6 = load i64, ptr %4, align 8, !tbaa !34
  %7 = call noundef i64 @_ZN11duckdb_zstdL29ZSTD_frameHeaderSize_internalEPKvmNS_13ZSTD_format_eE(ptr noundef %5, i64 noundef %6, i32 noundef 0)
  ret i64 %7
}