; Function Attrs: mustprogress nofree norecurse nosync nounwind willreturn memory(argmem: read) uwtable
define noundef i64 @_ZN11duckdb_zstd20ZSTD_frameHeaderSizeEPKvm(ptr noundef readonly captures(none) %0, i64 noundef %1) local_unnamed_addr #8 {
  %3 = icmp ult i64 %1, 5
  br i1 %3, label %_ZN11duckdb_zstdL29ZSTD_frameHeaderSize_internalEPKvmNS_13ZSTD_format_eE.exit, label %4

4:                                                ; preds = %2
  %5 = getelementptr i8, ptr %0, i64 4
  %6 = load i8, ptr %5, align 1, !tbaa !56
  %7 = zext i8 %6 to i32
  %8 = and i32 %7, 3
  %9 = lshr i32 %7, 6
  %10 = and i32 %7, 32
  %11 = icmp ne i32 %10, 0
  %12 = xor i1 %11, true
  %13 = zext i1 %12 to i64
  %14 = zext nneg i32 %8 to i64
  %15 = getelementptr inbounds nuw [4 x i64], ptr @_ZN11duckdb_zstdL18ZSTD_did_fieldSizeE, i64 0, i64 %14
  %16 = load i64, ptr %15, align 8, !tbaa !57
  %17 = zext nneg i32 %9 to i64
  %18 = getelementptr inbounds nuw [4 x i64], ptr @_ZN11duckdb_zstdL18ZSTD_fcs_fieldSizeE, i64 0, i64 %17
  %19 = load i64, ptr %18, align 8, !tbaa !57
  %.not.i = icmp ult i8 %6, 64
  %20 = and i1 %.not.i, %11
  %21 = zext i1 %20 to i64
  %22 = add i64 %16, 5
  %23 = add i64 %22, %19
  %24 = add i64 %23, %13
  %25 = add i64 %24, %21
  br label %_ZN11duckdb_zstdL29ZSTD_frameHeaderSize_internalEPKvmNS_13ZSTD_format_eE.exit

_ZN11duckdb_zstdL29ZSTD_frameHeaderSize_internalEPKvmNS_13ZSTD_format_eE.exit: ; preds = %2, %4
  %.0.i = phi i64 [ %25, %4 ], [ -72, %2 ]
  ret i64 %.0.i
}